target datalayout = "e-m:e-p270:32:32-p271:32:32-p272:64:64-i64:64-i128:128-f80:128-n8:16:32:64-S128"
target triple = "x86_64-pc-linux-gnu"

%struct.stbte_tilemap = type { [200 x [200 x [8 x i16]]], [200 x [200 x [1 x float]]], i32, i32, i32, i32, i32, i32, i32, i32, i32, i32, i32, i32, [100 x ptr], i32, i32, ptr, i32, i32, i32, i8, i8, i8, i8, i32, i32, i32, [8 x %struct.stbte__layer], i32, i32, i32, i32, i32, i32, i32, i32, i16, [4096 x i8], ptr }
%struct.stbte__layer = type { ptr, i32, i32 }
%struct.stbte__tileinfo = type { i16, i16, ptr, i32 }

; Function Attrs: nounwind uwtable
define void @stbte__choose_category(ptr noundef %0, i32 noundef %1) #0 {
  %3 = alloca ptr, align 8
  %4 = alloca i32, align 4
  %5 = alloca i32, align 4
  %6 = alloca i32, align 4
  store ptr %0, ptr %3, align 8, !tbaa !25
  store i32 %1, ptr %4, align 4, !tbaa !13
  call void @llvm.lifetime.start.p0(i64 4, ptr %5) #8
  call void @llvm.lifetime.start.p0(i64 4, ptr %6) #8
  store i32 0, ptr %6, align 4, !tbaa !13
  %7 = load i32, ptr %4, align 4, !tbaa !13
  %8 = load ptr, ptr %3, align 8, !tbaa !25
  %9 = getelementptr inbounds nuw %struct.stbte_tilemap, ptr %8, i32 0, i32 11
  store i32 %7, ptr %9, align 4, !tbaa !40
  store i32 0, ptr %5, align 4, !tbaa !13
  br label %10

10:                                               ; preds = %35, %2
  %11 = load i32, ptr %5, align 4, !tbaa !13
  %12 = load ptr, ptr %3, align 8, !tbaa !25
  %13 = getelementptr inbounds nuw %struct.stbte_tilemap, ptr %12, i32 0, i32 18
  %14 = load i32, ptr %13, align 8, !tbaa !59
  %15 = icmp slt i32 %11, %14
  br i1 %15, label %16, label %38

16:                                               ; preds = %10
  %17 = load ptr, ptr %3, align 8, !tbaa !25
  %18 = getelementptr inbounds nuw %struct.stbte_tilemap, ptr %17, i32 0, i32 17
  %19 = load ptr, ptr %18, align 8, !tbaa !26
  %20 = load i32, ptr %5, align 4, !tbaa !13
  %21 = sext i32 %20 to i64
  %22 = getelementptr inbounds %struct.stbte__tileinfo, ptr %19, i64 %21
  %23 = getelementptr inbounds nuw %struct.stbte__tileinfo, ptr %22, i32 0, i32 1
  %24 = load i16, ptr %23, align 2, !tbaa !80
  %25 = zext i16 %24 to i32
  %26 = load i32, ptr %4, align 4, !tbaa !13
  %27 = icmp eq i32 %25, %26
  br i1 %27, label %31, label %28

28:                                               ; preds = %16
  %29 = load i32, ptr %4, align 4, !tbaa !13
  %30 = icmp eq i32 %29, -1
  br i1 %30, label %31, label %34

31:                                               ; preds = %28, %16
  %32 = load i32, ptr %6, align 4, !tbaa !13
  %33 = add nsw i32 %32, 1
  store i32 %33, ptr %6, align 4, !tbaa !13
  br label %34

34:                                               ; preds = %31, %28
  br label %35

35:                                               ; preds = %34
  %36 = load i32, ptr %5, align 4, !tbaa !13
  %37 = add nsw i32 %36, 1
  store i32 %37, ptr %5, align 4, !tbaa !13
  br label %10, !llvm.loop !81

38:                                               ; preds = %10
  %39 = load i32, ptr %6, align 4, !tbaa !13
  %40 = load ptr, ptr %3, align 8, !tbaa !25
  %41 = getelementptr inbounds nuw %struct.stbte_tilemap, ptr %40, i32 0, i32 25
  store i32 %39, ptr %41, align 8, !tbaa !82
  %42 = load ptr, ptr %3, align 8, !tbaa !25
  %43 = getelementptr inbounds nuw %struct.stbte_tilemap, ptr %42, i32 0, i32 26
  store i32 0, ptr %43, align 4, !tbaa !37
  call void @llvm.lifetime.end.p0(i64 4, ptr %6) #8
  call void @llvm.lifetime.end.p0(i64 4, ptr %5) #8
  ret void
}

; Function Attrs: nounwind uwtable
define i32 @stbte__strequal(ptr noundef %0, ptr noundef %1) #0 {
  %3 = alloca i32, align 4
  %4 = alloca ptr, align 8
  %5 = alloca ptr, align 8
  store ptr %0, ptr %4, align 8, !tbaa !72
  store ptr %1, ptr %5, align 8, !tbaa !72
  br label %6

6:                                                ; preds = %21, %2
  %7 = load ptr, ptr %4, align 8, !tbaa !72
  %8 = load i8, ptr %7, align 1, !tbaa !60
  %9 = icmp ne i8 %8, 0
  br i1 %9, label %10, label %22

10:                                               ; preds = %6
  %11 = load ptr, ptr %4, align 8, !tbaa !72
  %12 = getelementptr inbounds nuw i8, ptr %11, i32 1
  store ptr %12, ptr %4, align 8, !tbaa !72
  %13 = load i8, ptr %11, align 1, !tbaa !60
  %14 = sext i8 %13 to i32
  %15 = load ptr, ptr %5, align 8, !tbaa !72
  %16 = getelementptr inbounds nuw i8, ptr %15, i32 1
  store ptr %16, ptr %5, align 8, !tbaa !72
  %17 = load i8, ptr %15, align 1, !tbaa !60
  %18 = sext i8 %17 to i32
  %19 = icmp ne i32 %14, %18
  br i1 %19, label %20, label %21

20:                                               ; preds = %10
  store i32 0, ptr %3, align 4
  br label %28

21:                                               ; preds = %10
  br label %6, !llvm.loop !83

22:                                               ; preds = %6
  %23 = load ptr, ptr %5, align 8, !tbaa !72
  %24 = load i8, ptr %23, align 1, !tbaa !60
  %25 = sext i8 %24 to i32
  %26 = icmp eq i32 %25, 0
  %27 = zext i1 %26 to i32
  store i32 %27, ptr %3, align 4
  br label %28

28:                                               ; preds = %22, %20
  %29 = load i32, ptr %3, align 4
  ret i32 %29
}

; Function Attrs: nounwind uwtable
define void @stbte__compute_tileinfo(ptr noundef %0) #0 {
  %2 = alloca ptr, align 8
  %3 = alloca i32, align 4
  %4 = alloca i32, align 4
  %5 = alloca ptr, align 8
  store ptr %0, ptr %2, align 8, !tbaa !25
  call void @llvm.lifetime.start.p0(i64 4, ptr %3) #8
  call void @llvm.lifetime.start.p0(i64 4, ptr %4) #8
  %6 = load ptr, ptr %2, align 8, !tbaa !25
  %7 = getelementptr inbounds nuw %struct.stbte_tilemap, ptr %6, i32 0, i32 15
  store i32 0, ptr %7, align 8, !tbaa !84
  store i32 0, ptr %3, align 4, !tbaa !13
  br label %8

8:                                                ; preds = %62, %1
  %9 = load i32, ptr %3, align 4, !tbaa !13
  %10 = load ptr, ptr %2, align 8, !tbaa !25
  %11 = getelementptr inbounds nuw %struct.stbte_tilemap, ptr %10, i32 0, i32 18
  %12 = load i32, ptr %11, align 8, !tbaa !59
  %13 = icmp slt i32 %9, %12
  br i1 %13, label %14, label %65

14:                                               ; preds = %8
  call void @llvm.lifetime.start.p0(i64 8, ptr %5) #8
  %15 = load ptr, ptr %2, align 8, !tbaa !25
  %16 = getelementptr inbounds nuw %struct.stbte_tilemap, ptr %15, i32 0, i32 17
  %17 = load ptr, ptr %16, align 8, !tbaa !26
  %18 = load i32, ptr %3, align 4, !tbaa !13
  %19 = sext i32 %18 to i64
  %20 = getelementptr inbounds %struct.stbte__tileinfo, ptr %17, i64 %19
  store ptr %20, ptr %5, align 8, !tbaa !85
  store i32 0, ptr %4, align 4, !tbaa !13
  br label %21

21:                                               ; preds = %41, %14
  %22 = load i32, ptr %4, align 4, !tbaa !13
  %23 = load ptr, ptr %2, align 8, !tbaa !25
  %24 = getelementptr inbounds nuw %struct.stbte_tilemap, ptr %23, i32 0, i32 15
  %25 = load i32, ptr %24, align 8, !tbaa !84
  %26 = icmp slt i32 %22, %25
  br i1 %26, label %27, label %44

27:                                               ; preds = %21
  %28 = load ptr, ptr %5, align 8, !tbaa !85
  %29 = getelementptr inbounds nuw %struct.stbte__tileinfo, ptr %28, i32 0, i32 2
  %30 = load ptr, ptr %29, align 8, !tbaa !73
  %31 = load ptr, ptr %2, align 8, !tbaa !25
  %32 = getelementptr inbounds nuw %struct.stbte_tilemap, ptr %31, i32 0, i32 14
  %33 = load i32, ptr %4, align 4, !tbaa !13
  %34 = sext i32 %33 to i64
  %35 = getelementptr inbounds [100 x ptr], ptr %32, i64 0, i64 %34
  %36 = load ptr, ptr %35, align 8, !tbaa !72
  %37 = call i32 @stbte__strequal(ptr noundef %30, ptr noundef %36)
  %38 = icmp ne i32 %37, 0
  br i1 %38, label %39, label %40

39:                                               ; preds = %27
  br label %57

40:                                               ; preds = %27
  br label %41

41:                                               ; preds = %40
  %42 = load i32, ptr %4, align 4, !tbaa !13
  %43 = add nsw i32 %42, 1
  store i32 %43, ptr %4, align 4, !tbaa !13
  br label %21, !llvm.loop !86

44:                                               ; preds = %21
  %45 = load ptr, ptr %5, align 8, !tbaa !85
  %46 = getelementptr inbounds nuw %struct.stbte__tileinfo, ptr %45, i32 0, i32 2
  %47 = load ptr, ptr %46, align 8, !tbaa !73
  %48 = load ptr, ptr %2, align 8, !tbaa !25
  %49 = getelementptr inbounds nuw %struct.stbte_tilemap, ptr %48, i32 0, i32 14
  %50 = load i32, ptr %4, align 4, !tbaa !13
  %51 = sext i32 %50 to i64
  %52 = getelementptr inbounds [100 x ptr], ptr %49, i64 0, i64 %51
  store ptr %47, ptr %52, align 8, !tbaa !72
  %53 = load ptr, ptr %2, align 8, !tbaa !25
  %54 = getelementptr inbounds nuw %struct.stbte_tilemap, ptr %53, i32 0, i32 15
  %55 = load i32, ptr %54, align 8, !tbaa !84
  %56 = add nsw i32 %55, 1
  store i32 %56, ptr %54, align 8, !tbaa !84
  br label %57

57:                                               ; preds = %44, %39
  %58 = load i32, ptr %4, align 4, !tbaa !13
  %59 = trunc i32 %58 to i16
  %60 = load ptr, ptr %5, align 8, !tbaa !85
  %61 = getelementptr inbounds nuw %struct.stbte__tileinfo, ptr %60, i32 0, i32 1
  store i16 %59, ptr %61, align 2, !tbaa !80
  call void @llvm.lifetime.end.p0(i64 8, ptr %5) #8
  br label %62

62:                                               ; preds = %57
  %63 = load i32, ptr %3, align 4, !tbaa !13
  %64 = add nsw i32 %63, 1
  store i32 %64, ptr %3, align 4, !tbaa !13
  br label %8, !llvm.loop !87

65:                                               ; preds = %8
  %66 = load ptr, ptr %2, align 8, !tbaa !25
  %67 = getelementptr inbounds nuw %struct.stbte_tilemap, ptr %66, i32 0, i32 11
  %68 = load i32, ptr %67, align 4, !tbaa !40
  %69 = load ptr, ptr %2, align 8, !tbaa !25
  %70 = getelementptr inbounds nuw %struct.stbte_tilemap, ptr %69, i32 0, i32 15
  %71 = load i32, ptr %70, align 8, !tbaa !84
  %72 = icmp sgt i32 %68, %71
  br i1 %72, label %73, label %76

73:                                               ; preds = %65
  %74 = load ptr, ptr %2, align 8, !tbaa !25
  %75 = getelementptr inbounds nuw %struct.stbte_tilemap, ptr %74, i32 0, i32 11
  store i32 -1, ptr %75, align 4, !tbaa !40
  br label %76

76:                                               ; preds = %73, %65
  %77 = load ptr, ptr %2, align 8, !tbaa !25
  %78 = load ptr, ptr %2, align 8, !tbaa !25
  %79 = getelementptr inbounds nuw %struct.stbte_tilemap, ptr %78, i32 0, i32 11
  %80 = load i32, ptr %79, align 4, !tbaa !40
  call void @stbte__choose_category(ptr noundef %77, i32 noundef %80)
  %81 = load ptr, ptr %2, align 8, !tbaa !25
  %82 = getelementptr inbounds nuw %struct.stbte_tilemap, ptr %81, i32 0, i32 27
  store i32 0, ptr %82, align 8, !tbaa !62
  call void @llvm.lifetime.end.p0(i64 4, ptr %4) #8
  call void @llvm.lifetime.end.p0(i64 4, ptr %3) #8
  ret void
}

; Function Attrs: nounwind uwtable
define void @stbte__prepare_tileinfo(ptr noundef %0) #0 {
  %2 = alloca ptr, align 8
  store ptr %0, ptr %2, align 8, !tbaa !25
  %3 = load ptr, ptr %2, align 8, !tbaa !25
  %4 = getelementptr inbounds nuw %struct.stbte_tilemap, ptr %3, i32 0, i32 27
  %5 = load i32, ptr %4, align 8, !tbaa !62
  %6 = icmp ne i32 %5, 0
  br i1 %6, label %7, label %9

7:                                                ; preds = %1
  %8 = load ptr, ptr %2, align 8, !tbaa !25
  call void @stbte__compute_tileinfo(ptr noundef %8)
  br label %9

9:                                                ; preds = %7, %1
  ret void
}