; Function Attrs: nofree norecurse nosync nounwind memory(readwrite, inaccessiblemem: none) uwtable
define void @stbte__prepare_tileinfo(ptr noundef captures(none) %0) local_unnamed_addr #13 {
  %2 = getelementptr inbounds nuw i8, ptr %0, i64 800888
  %3 = load i32, ptr %2, align 8, !tbaa !52
  %.not = icmp eq i32 %3, 0
  br i1 %.not, label %53, label %4

4:                                                ; preds = %1
  %5 = getelementptr inbounds nuw i8, ptr %0, i64 800848
  store i32 0, ptr %5, align 8, !tbaa !72
  %6 = getelementptr inbounds nuw i8, ptr %0, i64 800864
  %7 = load i32, ptr %6, align 8, !tbaa !51
  %8 = icmp sgt i32 %7, 0
  br i1 %8, label %.lr.ph35.i, label %._crit_edge36.i

.lr.ph35.i:                                       ; preds = %4
  %9 = getelementptr inbounds nuw i8, ptr %0, i64 800856
  %10 = load ptr, ptr %9, align 8, !tbaa !24
  %11 = getelementptr inbounds nuw i8, ptr %0, i64 800048
  %wide.trip.count44.i = zext nneg i32 %7 to i64
  br label %12

12:                                               ; preds = %.loopexit.i, %.lr.ph35.i
  %indvars.iv41.i = phi i64 [ 0, %.lr.ph35.i ], [ %indvars.iv.next42.i, %.loopexit.i ]
  %13 = phi i32 [ 0, %.lr.ph35.i ], [ %32, %.loopexit.i ]
  %14 = getelementptr inbounds nuw %struct.stbte__tileinfo, ptr %10, i64 %indvars.iv41.i
  %15 = icmp sgt i32 %13, 0
  %16 = getelementptr inbounds nuw i8, ptr %14, i64 8
  %17 = load ptr, ptr %16, align 8, !tbaa !58
  br i1 %15, label %.lr.ph.i, label %._crit_edge.i

.lr.ph.i:                                         ; preds = %12
  %wide.trip.count.i = zext nneg i32 %13 to i64
  br label %18

18:                                               ; preds = %stbte__strequal.exit.thread.i, %.lr.ph.i
  %indvars.iv.i = phi i64 [ 0, %.lr.ph.i ], [ %indvars.iv.next.i, %stbte__strequal.exit.thread.i ]
  %19 = getelementptr inbounds nuw [100 x ptr], ptr %11, i64 0, i64 %indvars.iv.i
  %20 = load ptr, ptr %19, align 8, !tbaa !73
  br label %21

21:                                               ; preds = %23, %18
  %.04.i.i = phi ptr [ %17, %18 ], [ %24, %23 ]
  %.0.i.i = phi ptr [ %20, %18 ], [ %25, %23 ]
  %22 = load i8, ptr %.04.i.i, align 1, !tbaa !47
  %.not.i.i = icmp eq i8 %22, 0
  br i1 %.not.i.i, label %stbte__strequal.exit.i, label %23

23:                                               ; preds = %21
  %24 = getelementptr inbounds nuw i8, ptr %.04.i.i, i64 1
  %25 = getelementptr inbounds nuw i8, ptr %.0.i.i, i64 1
  %26 = load i8, ptr %.0.i.i, align 1, !tbaa !47
  %.not7.i.i = icmp eq i8 %22, %26
  br i1 %.not7.i.i, label %21, label %stbte__strequal.exit.thread.i, !llvm.loop !71

stbte__strequal.exit.i:                           ; preds = %21
  %27 = load i8, ptr %.0.i.i, align 1, !tbaa !47
  %.not.i = icmp eq i8 %27, 0
  br i1 %.not.i, label %.loopexit.loopexit.i, label %stbte__strequal.exit.thread.i

stbte__strequal.exit.thread.i:                    ; preds = %23, %stbte__strequal.exit.i
  %indvars.iv.next.i = add nuw nsw i64 %indvars.iv.i, 1
  %exitcond.not.i = icmp eq i64 %indvars.iv.next.i, %wide.trip.count.i
  br i1 %exitcond.not.i, label %._crit_edge.i, label %18, !llvm.loop !74

._crit_edge.i:                                    ; preds = %stbte__strequal.exit.thread.i, %12
  %.023.lcssa.i = phi i32 [ 0, %12 ], [ %13, %stbte__strequal.exit.thread.i ]
  %28 = zext nneg i32 %.023.lcssa.i to i64
  %29 = getelementptr inbounds nuw [100 x ptr], ptr %11, i64 0, i64 %28
  store ptr %17, ptr %29, align 8, !tbaa !73
  %30 = add nsw i32 %13, 1
  store i32 %30, ptr %5, align 8, !tbaa !72
  br label %.loopexit.i

.loopexit.loopexit.i:                             ; preds = %stbte__strequal.exit.i
  %31 = trunc nuw nsw i64 %indvars.iv.i to i32
  br label %.loopexit.i

.loopexit.i:                                      ; preds = %.loopexit.loopexit.i, %._crit_edge.i
  %32 = phi i32 [ %30, %._crit_edge.i ], [ %13, %.loopexit.loopexit.i ]
  %.02329.i = phi i32 [ %.023.lcssa.i, %._crit_edge.i ], [ %31, %.loopexit.loopexit.i ]
  %33 = trunc i32 %.02329.i to i16
  %34 = getelementptr inbounds nuw i8, ptr %14, i64 2
  store i16 %33, ptr %34, align 2, !tbaa !68
  %indvars.iv.next42.i = add nuw nsw i64 %indvars.iv41.i, 1
  %exitcond45.not.i = icmp eq i64 %indvars.iv.next42.i, %wide.trip.count44.i
  br i1 %exitcond45.not.i, label %._crit_edge36.i, label %12, !llvm.loop !75

._crit_edge36.i:                                  ; preds = %.loopexit.i, %4
  %35 = phi i32 [ 0, %4 ], [ %32, %.loopexit.i ]
  %36 = getelementptr inbounds nuw i8, ptr %0, i64 800036
  %37 = load i32, ptr %36, align 4, !tbaa !38
  %38 = icmp sgt i32 %37, %35
  br i1 %38, label %39, label %40

39:                                               ; preds = %._crit_edge36.i
  store i32 -1, ptr %36, align 4, !tbaa !38
  br label %40

40:                                               ; preds = %39, %._crit_edge36.i
  %41 = phi i32 [ -1, %39 ], [ %37, %._crit_edge36.i ]
  br i1 %8, label %.lr.ph.i.i, label %stbte__compute_tileinfo.exit

.lr.ph.i.i:                                       ; preds = %40
  %42 = getelementptr inbounds nuw i8, ptr %0, i64 800856
  %43 = load ptr, ptr %42, align 8, !tbaa !24
  %44 = icmp eq i32 %41, -1
  %wide.trip.count.i.i = zext nneg i32 %7 to i64
  br label %45

45:                                               ; preds = %45, %.lr.ph.i.i
  %indvars.iv.i.i = phi i64 [ 0, %.lr.ph.i.i ], [ %indvars.iv.next.i.i, %45 ]
  %.015.i.i = phi i32 [ 0, %.lr.ph.i.i ], [ %spec.select.i.i, %45 ]
  %46 = getelementptr inbounds nuw %struct.stbte__tileinfo, ptr %43, i64 %indvars.iv.i.i, i32 1
  %47 = load i16, ptr %46, align 2, !tbaa !68
  %48 = zext i16 %47 to i32
  %49 = icmp eq i32 %41, %48
  %or.cond.i.i = or i1 %44, %49
  %50 = zext i1 %or.cond.i.i to i32
  %spec.select.i.i = add nuw nsw i32 %.015.i.i, %50
  %indvars.iv.next.i.i = add nuw nsw i64 %indvars.iv.i.i, 1
  %exitcond.not.i.i = icmp eq i64 %indvars.iv.next.i.i, %wide.trip.count.i.i
  br i1 %exitcond.not.i.i, label %stbte__compute_tileinfo.exit, label %45, !llvm.loop !69

stbte__compute_tileinfo.exit:                     ; preds = %45, %40
  %.0.lcssa.i.i = phi i32 [ 0, %40 ], [ %spec.select.i.i, %45 ]
  %51 = getelementptr inbounds nuw i8, ptr %0, i64 800880
  store i32 %.0.lcssa.i.i, ptr %51, align 8, !tbaa !70
  %52 = getelementptr inbounds nuw i8, ptr %0, i64 800884
  store i32 0, ptr %52, align 4, !tbaa !35
  store i32 0, ptr %2, align 8, !tbaa !52
  br label %53

53:                                               ; preds = %stbte__compute_tileinfo.exit, %1
  ret void
}